target datalayout = "e-m:e-p270:32:32-p271:32:32-p272:64:64-i64:64-i128:128-f80:128-n8:16:32:64-S128"
target triple = "x86_64-pc-linux-gnu"

%struct.AVMotionEstContext = type { ptr, ptr, i32, i32, i32, i32, i32, i32, i32, i32, i32, i32, i32, [2 x %struct.AVMotionEstPredictor], ptr }
%struct.AVMotionEstPredictor = type { [10 x [2 x i32]], i32 }

@dia1 = internal constant [4 x [2 x i8]] [[2 x i8] c"\FF\00", [2 x i8] c"\00\FF", [2 x i8] c"\01\00", [2 x i8] c"\00\01"], align 1
@dia2 = internal constant [8 x [2 x i8]] [[2 x i8] c"\FE\00", [2 x i8] c"\FF\FF", [2 x i8] c"\00\FE", [2 x i8] c"\01\FF", [2 x i8] c"\02\00", [2 x i8] c"\01\01", [2 x i8] c"\00\02", [2 x i8] c"\FF\01"], align 16

; Function Attrs: nounwind uwtable
define i64 @ff_me_search_ds(ptr noundef %0, i32 noundef %1, i32 noundef %2, ptr noundef %3) #0 {
  %5 = alloca i64, align 8
  %6 = alloca ptr, align 8
  %7 = alloca i32, align 4
  %8 = alloca i32, align 4
  %9 = alloca ptr, align 8
  %10 = alloca i32, align 4
  %11 = alloca i32, align 4
  %12 = alloca i32, align 4
  %13 = alloca i32, align 4
  %14 = alloca i32, align 4
  %15 = alloca i32, align 4
  %16 = alloca i64, align 8
  %17 = alloca i64, align 8
  %18 = alloca i32, align 4
  %19 = alloca i32, align 4
  %20 = alloca i32, align 4
  %21 = alloca i32, align 4
  store ptr %0, ptr %6, align 8, !tbaa !4
  store i32 %1, ptr %7, align 4, !tbaa !9
  store i32 %2, ptr %8, align 4, !tbaa !9
  store ptr %3, ptr %9, align 8, !tbaa !32
  call void @llvm.lifetime.start.p0(i64 4, ptr %10) #2
  call void @llvm.lifetime.start.p0(i64 4, ptr %11) #2
  call void @llvm.lifetime.start.p0(i64 4, ptr %12) #2
  %22 = load ptr, ptr %6, align 8, !tbaa !4
  %23 = getelementptr inbounds nuw %struct.AVMotionEstContext, ptr %22, i32 0, i32 7
  %24 = load i32, ptr %23, align 4, !tbaa !18
  %25 = load i32, ptr %7, align 4, !tbaa !9
  %26 = load ptr, ptr %6, align 8, !tbaa !4
  %27 = getelementptr inbounds nuw %struct.AVMotionEstContext, ptr %26, i32 0, i32 4
  %28 = load i32, ptr %27, align 8, !tbaa !16
  %29 = sub nsw i32 %25, %28
  %30 = icmp sgt i32 %24, %29
  br i1 %30, label %31, label %35

31:                                               ; preds = %4
  %32 = load ptr, ptr %6, align 8, !tbaa !4
  %33 = getelementptr inbounds nuw %struct.AVMotionEstContext, ptr %32, i32 0, i32 7
  %34 = load i32, ptr %33, align 4, !tbaa !18
  br label %41

35:                                               ; preds = %4
  %36 = load i32, ptr %7, align 4, !tbaa !9
  %37 = load ptr, ptr %6, align 8, !tbaa !4
  %38 = getelementptr inbounds nuw %struct.AVMotionEstContext, ptr %37, i32 0, i32 4
  %39 = load i32, ptr %38, align 8, !tbaa !16
  %40 = sub nsw i32 %36, %39
  br label %41

41:                                               ; preds = %35, %31
  %42 = phi i32 [ %34, %31 ], [ %40, %35 ]
  store i32 %42, ptr %12, align 4, !tbaa !9
  call void @llvm.lifetime.start.p0(i64 4, ptr %13) #2
  %43 = load ptr, ptr %6, align 8, !tbaa !4
  %44 = getelementptr inbounds nuw %struct.AVMotionEstContext, ptr %43, i32 0, i32 9
  %45 = load i32, ptr %44, align 4, !tbaa !20
  %46 = load i32, ptr %8, align 4, !tbaa !9
  %47 = load ptr, ptr %6, align 8, !tbaa !4
  %48 = getelementptr inbounds nuw %struct.AVMotionEstContext, ptr %47, i32 0, i32 4
  %49 = load i32, ptr %48, align 8, !tbaa !16
  %50 = sub nsw i32 %46, %49
  %51 = icmp sgt i32 %45, %50
  br i1 %51, label %52, label %56

52:                                               ; preds = %41
  %53 = load ptr, ptr %6, align 8, !tbaa !4
  %54 = getelementptr inbounds nuw %struct.AVMotionEstContext, ptr %53, i32 0, i32 9
  %55 = load i32, ptr %54, align 4, !tbaa !20
  br label %62

56:                                               ; preds = %41
  %57 = load i32, ptr %8, align 4, !tbaa !9
  %58 = load ptr, ptr %6, align 8, !tbaa !4
  %59 = getelementptr inbounds nuw %struct.AVMotionEstContext, ptr %58, i32 0, i32 4
  %60 = load i32, ptr %59, align 8, !tbaa !16
  %61 = sub nsw i32 %57, %60
  br label %62

62:                                               ; preds = %56, %52
  %63 = phi i32 [ %55, %52 ], [ %61, %56 ]
  store i32 %63, ptr %13, align 4, !tbaa !9
  call void @llvm.lifetime.start.p0(i64 4, ptr %14) #2
  %64 = load i32, ptr %7, align 4, !tbaa !9
  %65 = load ptr, ptr %6, align 8, !tbaa !4
  %66 = getelementptr inbounds nuw %struct.AVMotionEstContext, ptr %65, i32 0, i32 4
  %67 = load i32, ptr %66, align 8, !tbaa !16
  %68 = add nsw i32 %64, %67
  %69 = load ptr, ptr %6, align 8, !tbaa !4
  %70 = getelementptr inbounds nuw %struct.AVMotionEstContext, ptr %69, i32 0, i32 8
  %71 = load i32, ptr %70, align 8, !tbaa !19
  %72 = icmp sgt i32 %68, %71
  br i1 %72, label %73, label %77

73:                                               ; preds = %62
  %74 = load ptr, ptr %6, align 8, !tbaa !4
  %75 = getelementptr inbounds nuw %struct.AVMotionEstContext, ptr %74, i32 0, i32 8
  %76 = load i32, ptr %75, align 8, !tbaa !19
  br label %83

77:                                               ; preds = %62
  %78 = load i32, ptr %7, align 4, !tbaa !9
  %79 = load ptr, ptr %6, align 8, !tbaa !4
  %80 = getelementptr inbounds nuw %struct.AVMotionEstContext, ptr %79, i32 0, i32 4
  %81 = load i32, ptr %80, align 8, !tbaa !16
  %82 = add nsw i32 %78, %81
  br label %83

83:                                               ; preds = %77, %73
  %84 = phi i32 [ %76, %73 ], [ %82, %77 ]
  store i32 %84, ptr %14, align 4, !tbaa !9
  call void @llvm.lifetime.start.p0(i64 4, ptr %15) #2
  %85 = load i32, ptr %8, align 4, !tbaa !9
  %86 = load ptr, ptr %6, align 8, !tbaa !4
  %87 = getelementptr inbounds nuw %struct.AVMotionEstContext, ptr %86, i32 0, i32 4
  %88 = load i32, ptr %87, align 8, !tbaa !16
  %89 = add nsw i32 %85, %88
  %90 = load ptr, ptr %6, align 8, !tbaa !4
  %91 = getelementptr inbounds nuw %struct.AVMotionEstContext, ptr %90, i32 0, i32 10
  %92 = load i32, ptr %91, align 8, !tbaa !21
  %93 = icmp sgt i32 %89, %92
  br i1 %93, label %94, label %98

94:                                               ; preds = %83
  %95 = load ptr, ptr %6, align 8, !tbaa !4
  %96 = getelementptr inbounds nuw %struct.AVMotionEstContext, ptr %95, i32 0, i32 10
  %97 = load i32, ptr %96, align 8, !tbaa !21
  br label %104

98:                                               ; preds = %83
  %99 = load i32, ptr %8, align 4, !tbaa !9
  %100 = load ptr, ptr %6, align 8, !tbaa !4
  %101 = getelementptr inbounds nuw %struct.AVMotionEstContext, ptr %100, i32 0, i32 4
  %102 = load i32, ptr %101, align 8, !tbaa !16
  %103 = add nsw i32 %99, %102
  br label %104

104:                                              ; preds = %98, %94
  %105 = phi i32 [ %97, %94 ], [ %103, %98 ]
  store i32 %105, ptr %15, align 4, !tbaa !9
  call void @llvm.lifetime.start.p0(i64 8, ptr %16) #2
  call void @llvm.lifetime.start.p0(i64 8, ptr %17) #2
  call void @llvm.lifetime.start.p0(i64 4, ptr %18) #2
  call void @llvm.lifetime.start.p0(i64 4, ptr %19) #2
  call void @llvm.lifetime.start.p0(i64 4, ptr %20) #2
  %106 = load ptr, ptr %6, align 8, !tbaa !4
  %107 = getelementptr inbounds nuw %struct.AVMotionEstContext, ptr %106, i32 0, i32 14
  %108 = load ptr, ptr %107, align 8, !tbaa !17
  %109 = load ptr, ptr %6, align 8, !tbaa !4
  %110 = load i32, ptr %7, align 4, !tbaa !9
  %111 = load i32, ptr %8, align 4, !tbaa !9
  %112 = load i32, ptr %7, align 4, !tbaa !9
  %113 = load i32, ptr %8, align 4, !tbaa !9
  %114 = call i64 %108(ptr noundef %109, i32 noundef %110, i32 noundef %111, i32 noundef %112, i32 noundef %113)
  store i64 %114, ptr %17, align 8, !tbaa !26
  %115 = icmp ne i64 %114, 0
  br i1 %115, label %118, label %116

116:                                              ; preds = %104
  %117 = load i64, ptr %17, align 8, !tbaa !26
  store i64 %117, ptr %5, align 8
  store i32 1, ptr %21, align 4
  br label %354

118:                                              ; preds = %104
  %119 = load i32, ptr %7, align 4, !tbaa !9
  store i32 %119, ptr %10, align 4, !tbaa !9
  %120 = load i32, ptr %8, align 4, !tbaa !9
  store i32 %120, ptr %11, align 4, !tbaa !9
  store i32 0, ptr %20, align 4, !tbaa !9
  store i32 0, ptr %19, align 4, !tbaa !9
  br label %121

121:                                              ; preds = %245, %118
  %122 = load ptr, ptr %9, align 8, !tbaa !32
  %123 = getelementptr inbounds i32, ptr %122, i64 0
  %124 = load i32, ptr %123, align 4, !tbaa !9
  store i32 %124, ptr %10, align 4, !tbaa !9
  %125 = load ptr, ptr %9, align 8, !tbaa !32
  %126 = getelementptr inbounds i32, ptr %125, i64 1
  %127 = load i32, ptr %126, align 4, !tbaa !9
  store i32 %127, ptr %11, align 4, !tbaa !9
  store i32 0, ptr %18, align 4, !tbaa !9
  br label %128

128:                                              ; preds = %229, %121
  %129 = load i32, ptr %18, align 4, !tbaa !9
  %130 = icmp slt i32 %129, 8
  br i1 %130, label %131, label %232

131:                                              ; preds = %128
  %132 = load i32, ptr %10, align 4, !tbaa !9
  %133 = load i32, ptr %18, align 4, !tbaa !9
  %134 = sext i32 %133 to i64
  %135 = getelementptr inbounds [8 x [2 x i8]], ptr @dia2, i64 0, i64 %134
  %136 = getelementptr inbounds [2 x i8], ptr %135, i64 0, i64 0
  %137 = load i8, ptr %136, align 2, !tbaa !28
  %138 = sext i8 %137 to i32
  %139 = add nsw i32 %132, %138
  %140 = load i32, ptr %12, align 4, !tbaa !9
  %141 = icmp sge i32 %139, %140
  br i1 %141, label %142, label %228

142:                                              ; preds = %131
  %143 = load i32, ptr %10, align 4, !tbaa !9
  %144 = load i32, ptr %18, align 4, !tbaa !9
  %145 = sext i32 %144 to i64
  %146 = getelementptr inbounds [8 x [2 x i8]], ptr @dia2, i64 0, i64 %145
  %147 = getelementptr inbounds [2 x i8], ptr %146, i64 0, i64 0
  %148 = load i8, ptr %147, align 2, !tbaa !28
  %149 = sext i8 %148 to i32
  %150 = add nsw i32 %143, %149
  %151 = load i32, ptr %14, align 4, !tbaa !9
  %152 = icmp sle i32 %150, %151
  br i1 %152, label %153, label %228

153:                                              ; preds = %142
  %154 = load i32, ptr %11, align 4, !tbaa !9
  %155 = load i32, ptr %18, align 4, !tbaa !9
  %156 = sext i32 %155 to i64
  %157 = getelementptr inbounds [8 x [2 x i8]], ptr @dia2, i64 0, i64 %156
  %158 = getelementptr inbounds [2 x i8], ptr %157, i64 0, i64 1
  %159 = load i8, ptr %158, align 1, !tbaa !28
  %160 = sext i8 %159 to i32
  %161 = add nsw i32 %154, %160
  %162 = load i32, ptr %13, align 4, !tbaa !9
  %163 = icmp sge i32 %161, %162
  br i1 %163, label %164, label %228

164:                                              ; preds = %153
  %165 = load i32, ptr %11, align 4, !tbaa !9
  %166 = load i32, ptr %18, align 4, !tbaa !9
  %167 = sext i32 %166 to i64
  %168 = getelementptr inbounds [8 x [2 x i8]], ptr @dia2, i64 0, i64 %167
  %169 = getelementptr inbounds [2 x i8], ptr %168, i64 0, i64 1
  %170 = load i8, ptr %169, align 1, !tbaa !28
  %171 = sext i8 %170 to i32
  %172 = add nsw i32 %165, %171
  %173 = load i32, ptr %15, align 4, !tbaa !9
  %174 = icmp sle i32 %172, %173
  br i1 %174, label %175, label %228

175:                                              ; preds = %164
  br label %176

176:                                              ; preds = %175
  %177 = load ptr, ptr %6, align 8, !tbaa !4
  %178 = getelementptr inbounds nuw %struct.AVMotionEstContext, ptr %177, i32 0, i32 14
  %179 = load ptr, ptr %178, align 8, !tbaa !17
  %180 = load ptr, ptr %6, align 8, !tbaa !4
  %181 = load i32, ptr %7, align 4, !tbaa !9
  %182 = load i32, ptr %8, align 4, !tbaa !9
  %183 = load i32, ptr %10, align 4, !tbaa !9
  %184 = load i32, ptr %18, align 4, !tbaa !9
  %185 = sext i32 %184 to i64
  %186 = getelementptr inbounds [8 x [2 x i8]], ptr @dia2, i64 0, i64 %185
  %187 = getelementptr inbounds [2 x i8], ptr %186, i64 0, i64 0
  %188 = load i8, ptr %187, align 2, !tbaa !28
  %189 = sext i8 %188 to i32
  %190 = add nsw i32 %183, %189
  %191 = load i32, ptr %11, align 4, !tbaa !9
  %192 = load i32, ptr %18, align 4, !tbaa !9
  %193 = sext i32 %192 to i64
  %194 = getelementptr inbounds [8 x [2 x i8]], ptr @dia2, i64 0, i64 %193
  %195 = getelementptr inbounds [2 x i8], ptr %194, i64 0, i64 1
  %196 = load i8, ptr %195, align 1, !tbaa !28
  %197 = sext i8 %196 to i32
  %198 = add nsw i32 %191, %197
  %199 = call i64 %179(ptr noundef %180, i32 noundef %181, i32 noundef %182, i32 noundef %190, i32 noundef %198)
  store i64 %199, ptr %16, align 8, !tbaa !26
  %200 = load i64, ptr %16, align 8, !tbaa !26
  %201 = load i64, ptr %17, align 8, !tbaa !26
  %202 = icmp ult i64 %200, %201
  br i1 %202, label %203, label %225

203:                                              ; preds = %176
  %204 = load i64, ptr %16, align 8, !tbaa !26
  store i64 %204, ptr %17, align 8, !tbaa !26
  %205 = load i32, ptr %10, align 4, !tbaa !9
  %206 = load i32, ptr %18, align 4, !tbaa !9
  %207 = sext i32 %206 to i64
  %208 = getelementptr inbounds [8 x [2 x i8]], ptr @dia2, i64 0, i64 %207
  %209 = getelementptr inbounds [2 x i8], ptr %208, i64 0, i64 0
  %210 = load i8, ptr %209, align 2, !tbaa !28
  %211 = sext i8 %210 to i32
  %212 = add nsw i32 %205, %211
  %213 = load ptr, ptr %9, align 8, !tbaa !32
  %214 = getelementptr inbounds i32, ptr %213, i64 0
  store i32 %212, ptr %214, align 4, !tbaa !9
  %215 = load i32, ptr %11, align 4, !tbaa !9
  %216 = load i32, ptr %18, align 4, !tbaa !9
  %217 = sext i32 %216 to i64
  %218 = getelementptr inbounds [8 x [2 x i8]], ptr @dia2, i64 0, i64 %217
  %219 = getelementptr inbounds [2 x i8], ptr %218, i64 0, i64 1
  %220 = load i8, ptr %219, align 1, !tbaa !28
  %221 = sext i8 %220 to i32
  %222 = add nsw i32 %215, %221
  %223 = load ptr, ptr %9, align 8, !tbaa !32
  %224 = getelementptr inbounds i32, ptr %223, i64 1
  store i32 %222, ptr %224, align 4, !tbaa !9
  br label %225

225:                                              ; preds = %203, %176
  br label %226

226:                                              ; preds = %225
  br label %227

227:                                              ; preds = %226
  br label %228

228:                                              ; preds = %227, %164, %153, %142, %131
  br label %229

229:                                              ; preds = %228
  %230 = load i32, ptr %18, align 4, !tbaa !9
  %231 = add nsw i32 %230, 1
  store i32 %231, ptr %18, align 4, !tbaa !9
  br label %128, !llvm.loop !46

232:                                              ; preds = %128
  br label %233

233:                                              ; preds = %232
  %234 = load i32, ptr %10, align 4, !tbaa !9
  %235 = load ptr, ptr %9, align 8, !tbaa !32
  %236 = getelementptr inbounds i32, ptr %235, i64 0
  %237 = load i32, ptr %236, align 4, !tbaa !9
  %238 = icmp ne i32 %234, %237
  br i1 %238, label %245, label %239

239:                                              ; preds = %233
  %240 = load i32, ptr %11, align 4, !tbaa !9
  %241 = load ptr, ptr %9, align 8, !tbaa !32
  %242 = getelementptr inbounds i32, ptr %241, i64 1
  %243 = load i32, ptr %242, align 4, !tbaa !9
  %244 = icmp ne i32 %240, %243
  br label %245

245:                                              ; preds = %239, %233
  %246 = phi i1 [ true, %233 ], [ %244, %239 ]
  br i1 %246, label %121, label %247, !llvm.loop !47

247:                                              ; preds = %245
  store i32 0, ptr %18, align 4, !tbaa !9
  br label %248

248:                                              ; preds = %349, %247
  %249 = load i32, ptr %18, align 4, !tbaa !9
  %250 = icmp slt i32 %249, 4
  br i1 %250, label %251, label %352

251:                                              ; preds = %248
  %252 = load i32, ptr %10, align 4, !tbaa !9
  %253 = load i32, ptr %18, align 4, !tbaa !9
  %254 = sext i32 %253 to i64
  %255 = getelementptr inbounds [4 x [2 x i8]], ptr @dia1, i64 0, i64 %254
  %256 = getelementptr inbounds [2 x i8], ptr %255, i64 0, i64 0
  %257 = load i8, ptr %256, align 1, !tbaa !28
  %258 = sext i8 %257 to i32
  %259 = add nsw i32 %252, %258
  %260 = load i32, ptr %12, align 4, !tbaa !9
  %261 = icmp sge i32 %259, %260
  br i1 %261, label %262, label %348

262:                                              ; preds = %251
  %263 = load i32, ptr %10, align 4, !tbaa !9
  %264 = load i32, ptr %18, align 4, !tbaa !9
  %265 = sext i32 %264 to i64
  %266 = getelementptr inbounds [4 x [2 x i8]], ptr @dia1, i64 0, i64 %265
  %267 = getelementptr inbounds [2 x i8], ptr %266, i64 0, i64 0
  %268 = load i8, ptr %267, align 1, !tbaa !28
  %269 = sext i8 %268 to i32
  %270 = add nsw i32 %263, %269
  %271 = load i32, ptr %14, align 4, !tbaa !9
  %272 = icmp sle i32 %270, %271
  br i1 %272, label %273, label %348

273:                                              ; preds = %262
  %274 = load i32, ptr %11, align 4, !tbaa !9
  %275 = load i32, ptr %18, align 4, !tbaa !9
  %276 = sext i32 %275 to i64
  %277 = getelementptr inbounds [4 x [2 x i8]], ptr @dia1, i64 0, i64 %276
  %278 = getelementptr inbounds [2 x i8], ptr %277, i64 0, i64 1
  %279 = load i8, ptr %278, align 1, !tbaa !28
  %280 = sext i8 %279 to i32
  %281 = add nsw i32 %274, %280
  %282 = load i32, ptr %13, align 4, !tbaa !9
  %283 = icmp sge i32 %281, %282
  br i1 %283, label %284, label %348

284:                                              ; preds = %273
  %285 = load i32, ptr %11, align 4, !tbaa !9
  %286 = load i32, ptr %18, align 4, !tbaa !9
  %287 = sext i32 %286 to i64
  %288 = getelementptr inbounds [4 x [2 x i8]], ptr @dia1, i64 0, i64 %287
  %289 = getelementptr inbounds [2 x i8], ptr %288, i64 0, i64 1
  %290 = load i8, ptr %289, align 1, !tbaa !28
  %291 = sext i8 %290 to i32
  %292 = add nsw i32 %285, %291
  %293 = load i32, ptr %15, align 4, !tbaa !9
  %294 = icmp sle i32 %292, %293
  br i1 %294, label %295, label %348

295:                                              ; preds = %284
  br label %296

296:                                              ; preds = %295
  %297 = load ptr, ptr %6, align 8, !tbaa !4
  %298 = getelementptr inbounds nuw %struct.AVMotionEstContext, ptr %297, i32 0, i32 14
  %299 = load ptr, ptr %298, align 8, !tbaa !17
  %300 = load ptr, ptr %6, align 8, !tbaa !4
  %301 = load i32, ptr %7, align 4, !tbaa !9
  %302 = load i32, ptr %8, align 4, !tbaa !9
  %303 = load i32, ptr %10, align 4, !tbaa !9
  %304 = load i32, ptr %18, align 4, !tbaa !9
  %305 = sext i32 %304 to i64
  %306 = getelementptr inbounds [4 x [2 x i8]], ptr @dia1, i64 0, i64 %305
  %307 = getelementptr inbounds [2 x i8], ptr %306, i64 0, i64 0
  %308 = load i8, ptr %307, align 1, !tbaa !28
  %309 = sext i8 %308 to i32
  %310 = add nsw i32 %303, %309
  %311 = load i32, ptr %11, align 4, !tbaa !9
  %312 = load i32, ptr %18, align 4, !tbaa !9
  %313 = sext i32 %312 to i64
  %314 = getelementptr inbounds [4 x [2 x i8]], ptr @dia1, i64 0, i64 %313
  %315 = getelementptr inbounds [2 x i8], ptr %314, i64 0, i64 1
  %316 = load i8, ptr %315, align 1, !tbaa !28
  %317 = sext i8 %316 to i32
  %318 = add nsw i32 %311, %317
  %319 = call i64 %299(ptr noundef %300, i32 noundef %301, i32 noundef %302, i32 noundef %310, i32 noundef %318)
  store i64 %319, ptr %16, align 8, !tbaa !26
  %320 = load i64, ptr %16, align 8, !tbaa !26
  %321 = load i64, ptr %17, align 8, !tbaa !26
  %322 = icmp ult i64 %320, %321
  br i1 %322, label %323, label %345

323:                                              ; preds = %296
  %324 = load i64, ptr %16, align 8, !tbaa !26
  store i64 %324, ptr %17, align 8, !tbaa !26
  %325 = load i32, ptr %10, align 4, !tbaa !9
  %326 = load i32, ptr %18, align 4, !tbaa !9
  %327 = sext i32 %326 to i64
  %328 = getelementptr inbounds [4 x [2 x i8]], ptr @dia1, i64 0, i64 %327
  %329 = getelementptr inbounds [2 x i8], ptr %328, i64 0, i64 0
  %330 = load i8, ptr %329, align 1, !tbaa !28
  %331 = sext i8 %330 to i32
  %332 = add nsw i32 %325, %331
  %333 = load ptr, ptr %9, align 8, !tbaa !32
  %334 = getelementptr inbounds i32, ptr %333, i64 0
  store i32 %332, ptr %334, align 4, !tbaa !9
  %335 = load i32, ptr %11, align 4, !tbaa !9
  %336 = load i32, ptr %18, align 4, !tbaa !9
  %337 = sext i32 %336 to i64
  %338 = getelementptr inbounds [4 x [2 x i8]], ptr @dia1, i64 0, i64 %337
  %339 = getelementptr inbounds [2 x i8], ptr %338, i64 0, i64 1
  %340 = load i8, ptr %339, align 1, !tbaa !28
  %341 = sext i8 %340 to i32
  %342 = add nsw i32 %335, %341
  %343 = load ptr, ptr %9, align 8, !tbaa !32
  %344 = getelementptr inbounds i32, ptr %343, i64 1
  store i32 %342, ptr %344, align 4, !tbaa !9
  br label %345

345:                                              ; preds = %323, %296
  br label %346

346:                                              ; preds = %345
  br label %347

347:                                              ; preds = %346
  br label %348

348:                                              ; preds = %347, %284, %273, %262, %251
  br label %349

349:                                              ; preds = %348
  %350 = load i32, ptr %18, align 4, !tbaa !9
  %351 = add nsw i32 %350, 1
  store i32 %351, ptr %18, align 4, !tbaa !9
  br label %248, !llvm.loop !48

352:                                              ; preds = %248
  %353 = load i64, ptr %17, align 8, !tbaa !26
  store i64 %353, ptr %5, align 8
  store i32 1, ptr %21, align 4
  br label %354

354:                                              ; preds = %352, %116
  call void @llvm.lifetime.end.p0(i64 4, ptr %20) #2
  call void @llvm.lifetime.end.p0(i64 4, ptr %19) #2
  call void @llvm.lifetime.end.p0(i64 4, ptr %18) #2
  call void @llvm.lifetime.end.p0(i64 8, ptr %17) #2
  call void @llvm.lifetime.end.p0(i64 8, ptr %16) #2
  call void @llvm.lifetime.end.p0(i64 4, ptr %15) #2
  call void @llvm.lifetime.end.p0(i64 4, ptr %14) #2
  call void @llvm.lifetime.end.p0(i64 4, ptr %13) #2
  call void @llvm.lifetime.end.p0(i64 4, ptr %12) #2
  call void @llvm.lifetime.end.p0(i64 4, ptr %11) #2
  call void @llvm.lifetime.end.p0(i64 4, ptr %10) #2
  %355 = load i64, ptr %5, align 8
  ret i64 %355
}