; Function Attrs: nounwind uwtable
define i64 @ff_me_search_ds(ptr noundef %0, i32 noundef %1, i32 noundef %2, ptr noundef captures(none) %3) local_unnamed_addr #2 {
  %5 = getelementptr inbounds nuw i8, ptr %0, i64 36
  %6 = load i32, ptr %5, align 4, !tbaa !15
  %7 = getelementptr inbounds nuw i8, ptr %0, i64 24
  %8 = load i32, ptr %7, align 8, !tbaa !13
  %9 = sub nsw i32 %1, %8
  %. = tail call i32 @llvm.smax.i32(i32 %6, i32 %9)
  %10 = getelementptr inbounds nuw i8, ptr %0, i64 44
  %11 = load i32, ptr %10, align 4, !tbaa !17
  %12 = sub nsw i32 %2, %8
  %13 = tail call i32 @llvm.smax.i32(i32 %11, i32 %12)
  %14 = add nsw i32 %8, %1
  %15 = getelementptr inbounds nuw i8, ptr %0, i64 40
  %16 = load i32, ptr %15, align 8, !tbaa !16
  %17 = tail call i32 @llvm.smin.i32(i32 %14, i32 %16)
  %18 = add nsw i32 %8, %2
  %19 = getelementptr inbounds nuw i8, ptr %0, i64 48
  %20 = load i32, ptr %19, align 8, !tbaa !18
  %21 = tail call i32 @llvm.smin.i32(i32 %18, i32 %20)
  %22 = getelementptr inbounds nuw i8, ptr %0, i64 232
  %23 = load ptr, ptr %22, align 8, !tbaa !14
  %24 = tail call i64 %23(ptr noundef %0, i32 noundef %1, i32 noundef %2, i32 noundef %1, i32 noundef %2) #4
  %.not = icmp eq i64 %24, 0
  br i1 %.not, label %.loopexit, label %.critedge.preheader

.critedge.preheader:                              ; preds = %4
  %25 = getelementptr inbounds nuw i8, ptr %3, i64 4
  %.pre = load i32, ptr %3, align 4, !tbaa !26
  br label %.critedge

.critedge:                                        ; preds = %.critedge.backedge, %.critedge.preheader
  %26 = phi i32 [ %.pre, %.critedge.preheader ], [ %45, %.critedge.backedge ]
  %.0103 = phi i64 [ %24, %.critedge.preheader ], [ %.2, %.critedge.backedge ]
  %27 = load i32, ptr %25, align 4, !tbaa !26
  br label %28

28:                                               ; preds = %.critedge, %43
  %indvars.iv = phi i64 [ 0, %.critedge ], [ %indvars.iv.next, %43 ]
  %.1104138 = phi i64 [ %.0103, %.critedge ], [ %.2, %43 ]
  %29 = getelementptr inbounds nuw [8 x [2 x i8]], ptr @dia2, i64 0, i64 %indvars.iv
  %30 = load i8, ptr %29, align 2, !tbaa !22
  %31 = sext i8 %30 to i32
  %32 = add nsw i32 %26, %31
  %.not129 = icmp slt i32 %32, %.
  %.not130 = icmp sgt i32 %32, %17
  %or.cond = select i1 %.not129, i1 true, i1 %.not130
  br i1 %or.cond, label %43, label %33

33:                                               ; preds = %28
  %34 = getelementptr inbounds nuw i8, ptr %29, i64 1
  %35 = load i8, ptr %34, align 1, !tbaa !22
  %36 = sext i8 %35 to i32
  %37 = add nsw i32 %27, %36
  %.not131 = icmp slt i32 %37, %13
  %.not132 = icmp sgt i32 %37, %21
  %or.cond133 = select i1 %.not131, i1 true, i1 %.not132
  br i1 %or.cond133, label %43, label %38

38:                                               ; preds = %33
  %39 = load ptr, ptr %22, align 8, !tbaa !14
  %40 = tail call i64 %39(ptr noundef %0, i32 noundef %1, i32 noundef %2, i32 noundef %32, i32 noundef %37) #4
  %41 = icmp ult i64 %40, %.1104138
  br i1 %41, label %42, label %43

42:                                               ; preds = %38
  store i32 %32, ptr %3, align 4, !tbaa !26
  store i32 %37, ptr %25, align 4, !tbaa !26
  br label %43

43:                                               ; preds = %28, %33, %42, %38
  %.2 = phi i64 [ %40, %42 ], [ %.1104138, %38 ], [ %.1104138, %33 ], [ %.1104138, %28 ]
  %indvars.iv.next = add nuw nsw i64 %indvars.iv, 1
  %exitcond.not = icmp eq i64 %indvars.iv.next, 8
  br i1 %exitcond.not, label %44, label %28, !llvm.loop !39

44:                                               ; preds = %43
  %45 = load i32, ptr %3, align 4, !tbaa !26
  %.not123 = icmp eq i32 %26, %45
  br i1 %.not123, label %46, label %.critedge.backedge

46:                                               ; preds = %44
  %47 = load i32, ptr %25, align 4, !tbaa !26
  %.not124 = icmp eq i32 %27, %47
  br i1 %.not124, label %.preheader, label %.critedge.backedge

.critedge.backedge:                               ; preds = %46, %44
  br label %.critedge, !llvm.loop !40

.preheader:                                       ; preds = %46, %62
  %indvars.iv144 = phi i64 [ %indvars.iv.next145, %62 ], [ 0, %46 ]
  %.3140 = phi i64 [ %.4, %62 ], [ %.2, %46 ]
  %48 = getelementptr inbounds nuw [4 x [2 x i8]], ptr @dia1, i64 0, i64 %indvars.iv144
  %49 = load i8, ptr %48, align 1, !tbaa !22
  %50 = sext i8 %49 to i32
  %51 = add nsw i32 %26, %50
  %.not125 = icmp slt i32 %51, %.
  %.not126 = icmp sgt i32 %51, %17
  %or.cond134 = select i1 %.not125, i1 true, i1 %.not126
  br i1 %or.cond134, label %62, label %52

52:                                               ; preds = %.preheader
  %53 = getelementptr inbounds nuw i8, ptr %48, i64 1
  %54 = load i8, ptr %53, align 1, !tbaa !22
  %55 = sext i8 %54 to i32
  %56 = add nsw i32 %27, %55
  %.not127 = icmp slt i32 %56, %13
  %.not128 = icmp sgt i32 %56, %21
  %or.cond135 = select i1 %.not127, i1 true, i1 %.not128
  br i1 %or.cond135, label %62, label %57

57:                                               ; preds = %52
  %58 = load ptr, ptr %22, align 8, !tbaa !14
  %59 = tail call i64 %58(ptr noundef %0, i32 noundef %1, i32 noundef %2, i32 noundef %51, i32 noundef %56) #4
  %60 = icmp ult i64 %59, %.3140
  br i1 %60, label %61, label %62

61:                                               ; preds = %57
  store i32 %51, ptr %3, align 4, !tbaa !26
  store i32 %56, ptr %25, align 4, !tbaa !26
  br label %62

62:                                               ; preds = %.preheader, %52, %61, %57
  %.4 = phi i64 [ %59, %61 ], [ %.3140, %57 ], [ %.3140, %52 ], [ %.3140, %.preheader ]
  %indvars.iv.next145 = add nuw nsw i64 %indvars.iv144, 1
  %exitcond147.not = icmp eq i64 %indvars.iv.next145, 4
  br i1 %exitcond147.not, label %.loopexit, label %.preheader, !llvm.loop !41

.loopexit:                                        ; preds = %62, %4
  %.0 = phi i64 [ 0, %4 ], [ %.4, %62 ]
  ret i64 %.0
}